target datalayout = "e-m:e-p270:32:32-p271:32:32-p272:64:64-i64:64-i128:128-f80:128-n8:16:32:64-S128"
target triple = "x86_64-pc-linux-gnu"

%struct.curltime = type { i64, i32 }
%struct.Curl_easy = type { i32, i64, i64, ptr, %struct.Curl_llist_node, %struct.Curl_llist_node, i32, i32, %struct.Curl_message, %struct.easy_pollset, %struct.Names, ptr, ptr, ptr, %struct.SingleRequest, %struct.UserDefined, ptr, ptr, %struct.Progress, %struct.UrlState, ptr, %struct.PureInfo, %struct.curl_tlssessioninfo }
%struct.Curl_llist_node = type { ptr, ptr, ptr, ptr }
%struct.Curl_message = type { %struct.Curl_llist_node, %struct.CURLMsg }
%struct.CURLMsg = type { i32, ptr, %union.anon }
%union.anon = type { ptr }
%struct.easy_pollset = type { [5 x i32], i32, [5 x i8] }
%struct.Names = type { ptr, i32 }
%struct.SingleRequest = type <{ i64, i64, i64, i64, %struct.curltime, i32, i32, i32, i32, i64, i32, i32, i32, i32, ptr, ptr, %struct.bufq, i64, i64, ptr, ptr, %union.anon.0, ptr, i8, i32, [3 x i8] }>
%struct.bufq = type { ptr, ptr, ptr, ptr, i64, i64, i64, i32 }
%union.anon.0 = type { ptr }
%struct.UserDefined = type <{ ptr, ptr, ptr, ptr, ptr, ptr, i16, [6 x i8], i64, i64, i64, ptr, ptr, i64, i16, i16, [4 x i8], ptr, ptr, ptr, ptr, ptr, ptr, ptr, ptr, ptr, ptr, ptr, ptr, ptr, ptr, ptr, ptr, ptr, ptr, ptr, ptr, ptr, ptr, ptr, i32, i32, i32, i32, i32, [4 x i8], i64, i64, i64, i64, i64, i64, i64, i64, ptr, ptr, %struct.curl_mimepart, ptr, ptr, i64, i8, i8, i8, [5 x i8], %struct.ssl_config_data, %struct.ssl_config_data, ptr, i16, i8, i8, [4 x i8], %struct.ssl_general_config, i32, i32, i32, [4 x i8], ptr, ptr, i8, [7 x i8], i64, i8, i8, i8, i8, i32, ptr, ptr, ptr, i8, i8, [2 x i8], i32, [63 x ptr], [8 x ptr], i32, i32, i32, [4 x i8], ptr, ptr, ptr, ptr, ptr, i8, [3 x i8], i32, i32, i32, i64, %struct.Curl_data_priority, ptr, ptr, i64, ptr, i64, ptr, ptr, ptr, i8, [3 x i8], i32, i8, i8, i64, [6 x i8] }>
%struct.curl_mimepart = type { ptr, ptr, i32, i32, ptr, ptr, ptr, ptr, ptr, ptr, ptr, ptr, ptr, ptr, ptr, i64, %struct.mime_state, ptr, %struct.mime_encoder_state, i64 }
%struct.mime_state = type { i32, ptr, i64 }
%struct.mime_encoder_state = type { i64, i64, i64, [256 x i8] }
%struct.ssl_config_data = type { %struct.ssl_primary_config, i64, ptr, ptr, ptr, ptr, ptr, ptr, ptr, i16 }
%struct.ssl_primary_config = type { ptr, ptr, ptr, ptr, ptr, ptr, ptr, ptr, ptr, ptr, ptr, ptr, i8, i32, i8, i8 }
%struct.ssl_general_config = type { i64, i32 }
%struct.Curl_data_priority = type { ptr, ptr, i32, i8 }
%struct.Progress = type { i64, %struct.pgrs_dir, %struct.pgrs_dir, i64, i64, i32, i32, i64, i64, i64, i64, i64, i64, i64, i64, i64, %struct.curltime, %struct.curltime, %struct.curltime, %struct.curltime, [6 x i64], [6 x %struct.curltime], i32, i8 }
%struct.pgrs_dir = type { i64, i64, i64, %struct.pgrs_measure }
%struct.pgrs_measure = type { %struct.curltime, i64 }
%struct.UrlState = type { %struct.curltime, i64, i64, %struct.dynbuf, ptr, i64, ptr, i32, i32, i32, ptr, i64, i32, i64, i32, ptr, %struct.digestdata, %struct.digestdata, %struct.auth, %struct.auth, %struct.Curl_async, ptr, %struct.curltime, %struct.Curl_tree, %struct.Curl_llist, [15 x %struct.time_node], ptr, ptr, i64, i64, %struct.Curl_data_priority, ptr, ptr, ptr, %struct.urlpieces, ptr, ptr, ptr, ptr, ptr, i64, %struct.dynbuf, %struct.Curl_llist, [2 x %struct.curl_header], ptr, i32, ptr, ptr, %struct.store_netrc, %struct.dynamically_allocated_data, i8, i8, i8, i8, i32 }
%struct.digestdata = type { ptr, ptr, ptr, ptr, ptr, ptr, i32, i8, i8 }
%struct.auth = type { i64, i64, i64, i8 }
%struct.Curl_async = type { ptr, ptr, ptr, ptr, i32, i32, i8 }
%struct.Curl_tree = type { ptr, ptr, ptr, ptr, %struct.curltime, ptr }
%struct.time_node = type { %struct.Curl_llist_node, %struct.curltime, i32 }
%struct.urlpieces = type { ptr, ptr, ptr, ptr, ptr, ptr, ptr, ptr }
%struct.dynbuf = type { ptr, i64, i64, i64 }
%struct.Curl_llist = type { ptr, ptr, ptr, i64 }
%struct.curl_header = type { ptr, ptr, i64, i64, i32, ptr }
%struct.store_netrc = type { %struct.dynbuf, ptr, i8 }
%struct.dynamically_allocated_data = type { ptr, ptr, ptr, ptr, ptr, ptr, ptr, ptr, ptr, ptr, ptr, ptr, ptr }
%struct.PureInfo = type { i32, i32, i32, i64, i64, i64, i64, i64, ptr, ptr, i64, i32, %struct.ip_quadruple, i32, ptr, i32, %struct.curl_certinfo, i32, i8 }
%struct.ip_quadruple = type { [46 x i8], [46 x i8], i32, i32 }
%struct.curl_certinfo = type { i32, ptr }
%struct.curl_tlssessioninfo = type { i32, ptr }
%struct.pingpong = type { i64, i8, ptr, i64, i64, %struct.curltime, i64, %struct.dynbuf, %struct.dynbuf, i64, i64, ptr, ptr }

@.str.2 = private unnamed_addr constant [3 x i8] c"\0D\0A\00", align 1

; Function Attrs: nounwind uwtable
define dso_local i32 @Curl_pp_vsendf(ptr noundef %0, ptr noundef %1, ptr noundef %2, ptr noundef %3) #0 {
  %5 = alloca i32, align 4
  %6 = alloca ptr, align 8
  %7 = alloca ptr, align 8
  %8 = alloca ptr, align 8
  %9 = alloca ptr, align 8
  %10 = alloca i64, align 8
  %11 = alloca i64, align 8
  %12 = alloca ptr, align 8
  %13 = alloca i32, align 4
  %14 = alloca ptr, align 8
  %15 = alloca i32, align 4
  %16 = alloca %struct.curltime, align 8
  store ptr %0, ptr %6, align 8, !tbaa !4
  store ptr %1, ptr %7, align 8, !tbaa !9
  store ptr %2, ptr %8, align 8, !tbaa !97
  store ptr %3, ptr %9, align 8, !tbaa !98
  call void @llvm.lifetime.start.p0(i64 8, ptr %10) #7
  store i64 0, ptr %10, align 8, !tbaa !86
  call void @llvm.lifetime.start.p0(i64 8, ptr %11) #7
  call void @llvm.lifetime.start.p0(i64 8, ptr %12) #7
  call void @llvm.lifetime.start.p0(i64 4, ptr %13) #7
  call void @llvm.lifetime.start.p0(i64 8, ptr %14) #7
  %17 = load ptr, ptr %6, align 8, !tbaa !4
  %18 = getelementptr inbounds nuw %struct.Curl_easy, ptr %17, i32 0, i32 3
  %19 = load ptr, ptr %18, align 8, !tbaa !13
  store ptr %19, ptr %14, align 8, !tbaa !82
  br label %20

20:                                               ; preds = %4
  br label %21

21:                                               ; preds = %20
  br label %22

22:                                               ; preds = %21
  br label %23

23:                                               ; preds = %22
  br label %24

24:                                               ; preds = %23
  br label %25

25:                                               ; preds = %24
  br label %26

26:                                               ; preds = %25
  br label %27

27:                                               ; preds = %26
  br label %28

28:                                               ; preds = %27
  %29 = load ptr, ptr %14, align 8, !tbaa !82
  %30 = icmp ne ptr %29, null
  br i1 %30, label %32, label %31

31:                                               ; preds = %28
  store i32 55, ptr %5, align 4
  store i32 1, ptr %15, align 4
  br label %108

32:                                               ; preds = %28
  %33 = load ptr, ptr %7, align 8, !tbaa !9
  %34 = getelementptr inbounds nuw %struct.pingpong, ptr %33, i32 0, i32 7
  call void @Curl_dyn_reset(ptr noundef %34)
  %35 = load ptr, ptr %7, align 8, !tbaa !9
  %36 = getelementptr inbounds nuw %struct.pingpong, ptr %35, i32 0, i32 7
  %37 = load ptr, ptr %8, align 8, !tbaa !97
  %38 = load ptr, ptr %9, align 8, !tbaa !98
  %39 = call i32 @Curl_dyn_vaddf(ptr noundef %36, ptr noundef %37, ptr noundef %38)
  store i32 %39, ptr %13, align 4, !tbaa !90
  %40 = load i32, ptr %13, align 4, !tbaa !90
  %41 = icmp ne i32 %40, 0
  br i1 %41, label %42, label %44

42:                                               ; preds = %32
  %43 = load i32, ptr %13, align 4, !tbaa !90
  store i32 %43, ptr %5, align 4
  store i32 1, ptr %15, align 4
  br label %108

44:                                               ; preds = %32
  %45 = load ptr, ptr %7, align 8, !tbaa !9
  %46 = getelementptr inbounds nuw %struct.pingpong, ptr %45, i32 0, i32 7
  %47 = call i32 @Curl_dyn_addn(ptr noundef %46, ptr noundef @.str.2, i64 noundef 2)
  store i32 %47, ptr %13, align 4, !tbaa !90
  %48 = load i32, ptr %13, align 4, !tbaa !90
  %49 = icmp ne i32 %48, 0
  br i1 %49, label %50, label %52

50:                                               ; preds = %44
  %51 = load i32, ptr %13, align 4, !tbaa !90
  store i32 %51, ptr %5, align 4
  store i32 1, ptr %15, align 4
  br label %108

52:                                               ; preds = %44
  %53 = load ptr, ptr %7, align 8, !tbaa !9
  %54 = getelementptr inbounds nuw %struct.pingpong, ptr %53, i32 0, i32 1
  store i8 1, ptr %54, align 8, !tbaa !96
  %55 = load ptr, ptr %7, align 8, !tbaa !9
  %56 = getelementptr inbounds nuw %struct.pingpong, ptr %55, i32 0, i32 7
  %57 = call i64 @Curl_dyn_len(ptr noundef %56)
  store i64 %57, ptr %11, align 8, !tbaa !86
  %58 = load ptr, ptr %7, align 8, !tbaa !9
  %59 = getelementptr inbounds nuw %struct.pingpong, ptr %58, i32 0, i32 7
  %60 = call ptr @Curl_dyn_ptr(ptr noundef %59)
  store ptr %60, ptr %12, align 8, !tbaa !97
  %61 = load ptr, ptr %6, align 8, !tbaa !4
  %62 = load ptr, ptr %12, align 8, !tbaa !97
  %63 = load i64, ptr %11, align 8, !tbaa !86
  %64 = call i32 @Curl_conn_send(ptr noundef %61, i32 noundef 0, ptr noundef %62, i64 noundef %63, i1 noundef zeroext false, ptr noundef %10)
  store i32 %64, ptr %13, align 4, !tbaa !90
  %65 = load i32, ptr %13, align 4, !tbaa !90
  %66 = icmp eq i32 %65, 81
  br i1 %66, label %67, label %68

67:                                               ; preds = %52
  store i64 0, ptr %10, align 8, !tbaa !86
  br label %74

68:                                               ; preds = %52
  %69 = load i32, ptr %13, align 4, !tbaa !90
  %70 = icmp ne i32 %69, 0
  br i1 %70, label %71, label %73

71:                                               ; preds = %68
  %72 = load i32, ptr %13, align 4, !tbaa !90
  store i32 %72, ptr %5, align 4
  store i32 1, ptr %15, align 4
  br label %108

73:                                               ; preds = %68
  br label %74

74:                                               ; preds = %73, %67
  %75 = load ptr, ptr %6, align 8, !tbaa !4
  %76 = load ptr, ptr %12, align 8, !tbaa !97
  %77 = load i64, ptr %10, align 8, !tbaa !86
  call void @Curl_debug(ptr noundef %75, i32 noundef 2, ptr noundef %76, i64 noundef %77)
  %78 = load i64, ptr %10, align 8, !tbaa !86
  %79 = load i64, ptr %11, align 8, !tbaa !86
  %80 = icmp ne i64 %78, %79
  br i1 %80, label %81, label %93

81:                                               ; preds = %74
  %82 = load ptr, ptr %12, align 8, !tbaa !97
  %83 = load ptr, ptr %7, align 8, !tbaa !9
  %84 = getelementptr inbounds nuw %struct.pingpong, ptr %83, i32 0, i32 2
  store ptr %82, ptr %84, align 8, !tbaa !100
  %85 = load i64, ptr %11, align 8, !tbaa !86
  %86 = load ptr, ptr %7, align 8, !tbaa !9
  %87 = getelementptr inbounds nuw %struct.pingpong, ptr %86, i32 0, i32 4
  store i64 %85, ptr %87, align 8, !tbaa !101
  %88 = load i64, ptr %11, align 8, !tbaa !86
  %89 = load i64, ptr %10, align 8, !tbaa !86
  %90 = sub i64 %88, %89
  %91 = load ptr, ptr %7, align 8, !tbaa !9
  %92 = getelementptr inbounds nuw %struct.pingpong, ptr %91, i32 0, i32 3
  store i64 %90, ptr %92, align 8, !tbaa !92
  br label %107

93:                                               ; preds = %74
  %94 = load ptr, ptr %7, align 8, !tbaa !9
  %95 = getelementptr inbounds nuw %struct.pingpong, ptr %94, i32 0, i32 2
  store ptr null, ptr %95, align 8, !tbaa !100
  %96 = load ptr, ptr %7, align 8, !tbaa !9
  %97 = getelementptr inbounds nuw %struct.pingpong, ptr %96, i32 0, i32 4
  store i64 0, ptr %97, align 8, !tbaa !101
  %98 = load ptr, ptr %7, align 8, !tbaa !9
  %99 = getelementptr inbounds nuw %struct.pingpong, ptr %98, i32 0, i32 3
  store i64 0, ptr %99, align 8, !tbaa !92
  %100 = load ptr, ptr %7, align 8, !tbaa !9
  %101 = getelementptr inbounds nuw %struct.pingpong, ptr %100, i32 0, i32 5
  call void @llvm.lifetime.start.p0(i64 16, ptr %16) #7
  %102 = call { i64, i32 } @Curl_now()
  %103 = getelementptr inbounds nuw { i64, i32 }, ptr %16, i32 0, i32 0
  %104 = extractvalue { i64, i32 } %102, 0
  store i64 %104, ptr %103, align 8
  %105 = getelementptr inbounds nuw { i64, i32 }, ptr %16, i32 0, i32 1
  %106 = extractvalue { i64, i32 } %102, 1
  store i32 %106, ptr %105, align 8
  call void @llvm.memcpy.p0.p0.i64(ptr align 8 %101, ptr align 8 %16, i64 16, i1 false), !tbaa.struct !95
  call void @llvm.lifetime.end.p0(i64 16, ptr %16) #7
  br label %107

107:                                              ; preds = %93, %81
  store i32 0, ptr %5, align 4
  store i32 1, ptr %15, align 4
  br label %108

108:                                              ; preds = %107, %71, %50, %42, %31
  call void @llvm.lifetime.end.p0(i64 8, ptr %14) #7
  call void @llvm.lifetime.end.p0(i64 4, ptr %13) #7
  call void @llvm.lifetime.end.p0(i64 8, ptr %12) #7
  call void @llvm.lifetime.end.p0(i64 8, ptr %11) #7
  call void @llvm.lifetime.end.p0(i64 8, ptr %10) #7
  %109 = load i32, ptr %5, align 4
  ret i32 %109
}